target datalayout = "e-m:e-p270:32:32-p271:32:32-p272:64:64-i64:64-i128:128-f80:128-n8:16:32:64-S128"
target triple = "x86_64-pc-linux-gnu"

%"class.llvm::SmallVectorBase" = type { ptr, i32, i32 }
%"class.llvm::TargetSchedModel" = type { %"struct.llvm::MCSchedModel", %"class.llvm::InstrItineraryData", ptr, ptr, %"class.llvm::SmallVector.93", i32, i32 }
%"struct.llvm::MCSchedModel" = type { i32, i32, i32, i32, i32, i32, i8, i8, i8, i32, ptr, ptr, i32, i32, ptr, ptr }
%"class.llvm::InstrItineraryData" = type { %"struct.llvm::MCSchedModel", ptr, ptr, ptr, ptr }
%"class.llvm::SmallVector.93" = type { %"class.llvm::SmallVectorImpl.94", %"struct.llvm::SmallVectorStorage.97" }
%"class.llvm::SmallVectorImpl.94" = type { %"class.llvm::SmallVectorTemplateBase.95" }
%"class.llvm::SmallVectorTemplateBase.95" = type { %"class.llvm::SmallVectorTemplateCommon.96" }
%"class.llvm::SmallVectorTemplateCommon.96" = type { %"class.llvm::SmallVectorBase" }
%"struct.llvm::SmallVectorStorage.97" = type { [64 x i8] }
%"class.std::vector.243" = type { %"struct.std::_Vector_base.244" }
%"struct.std::_Vector_base.244" = type { %"struct.std::_Vector_base<unsigned int, std::allocator<unsigned int>>::_Vector_impl" }
%"struct.std::_Vector_base<unsigned int, std::allocator<unsigned int>>::_Vector_impl" = type { %"struct.std::_Vector_base<unsigned int, std::allocator<unsigned int>>::_Vector_impl_data" }
%"struct.std::_Vector_base<unsigned int, std::allocator<unsigned int>>::_Vector_impl_data" = type { ptr, ptr, ptr }
%"class.std::__cxx11::basic_string" = type { %"struct.std::__cxx11::basic_string<char>::_Alloc_hider", i64, %union.anon.318 }
%"struct.std::__cxx11::basic_string<char>::_Alloc_hider" = type { ptr }
%union.anon.318 = type { i64, [8 x i8] }
%"class.llvm::SchedBoundary" = type { ptr, ptr, ptr, %"class.llvm::ReadyQueue", %"class.llvm::ReadyQueue", ptr, i8, i32, i32, i32, i32, i32, i32, %"class.llvm::SmallVector.93", i32, i32, i8, %"class.std::map", %"class.std::vector.243", %"class.llvm::SmallVector.93", %"class.llvm::SmallVector.490" }
%"class.llvm::ReadyQueue" = type { i32, %"class.std::__cxx11::basic_string", %"class.std::vector.482" }
%"class.std::vector.482" = type { %"struct.std::_Vector_base.483" }
%"struct.std::_Vector_base.483" = type { %"struct.std::_Vector_base<llvm::SUnit *, std::allocator<llvm::SUnit *>>::_Vector_impl" }
%"struct.std::_Vector_base<llvm::SUnit *, std::allocator<llvm::SUnit *>>::_Vector_impl" = type { %"struct.std::_Vector_base<llvm::SUnit *, std::allocator<llvm::SUnit *>>::_Vector_impl_data" }
%"struct.std::_Vector_base<llvm::SUnit *, std::allocator<llvm::SUnit *>>::_Vector_impl_data" = type { ptr, ptr, ptr }
%"class.std::map" = type { %"class.std::_Rb_tree" }
%"class.std::_Rb_tree" = type { %"struct.std::_Rb_tree<unsigned int, std::pair<const unsigned int, llvm::ResourceSegments>, std::_Select1st<std::pair<const unsigned int, llvm::ResourceSegments>>, std::less<unsigned int>>::_Rb_tree_impl" }
%"struct.std::_Rb_tree<unsigned int, std::pair<const unsigned int, llvm::ResourceSegments>, std::_Select1st<std::pair<const unsigned int, llvm::ResourceSegments>>, std::less<unsigned int>>::_Rb_tree_impl" = type { [8 x i8], %"struct.std::_Rb_tree_header" }
%"struct.std::_Rb_tree_header" = type { %"struct.std::_Rb_tree_node_base", i64 }
%"struct.std::_Rb_tree_node_base" = type { i32, ptr, ptr, ptr }
%"class.llvm::SmallVector.490" = type { %"class.llvm::SmallVectorImpl.491", %"struct.llvm::SmallVectorStorage.494" }
%"class.llvm::SmallVectorImpl.491" = type { %"class.llvm::SmallVectorTemplateBase.492" }
%"class.llvm::SmallVectorTemplateBase.492" = type { %"class.llvm::SmallVectorTemplateCommon.493" }
%"class.llvm::SmallVectorTemplateCommon.493" = type { %"class.llvm::SmallVectorBase" }
%"struct.llvm::SmallVectorStorage.494" = type { [256 x i8] }
%"class.llvm::ScheduleHazardRecognizer" = type <{ ptr, i32, [4 x i8] }>

; Function Attrs: mustprogress nounwind uwtable
define linkonce_odr hidden noundef ptr @_ZNK4llvm25SmallVectorTemplateCommonIjvE5beginEv(ptr noundef nonnull align 8 dereferenceable(16) %0) #1 comdat align 2 {
  %2 = alloca ptr, align 8
  store ptr %0, ptr %2, align 8
  %3 = load ptr, ptr %2, align 8
  %4 = getelementptr inbounds nuw %"class.llvm::SmallVectorBase", ptr %3, i32 0, i32 0
  %5 = load ptr, ptr %4, align 8
  ret ptr %5
}

; Function Attrs: mustprogress nounwind uwtable
define linkonce_odr hidden noundef nonnull align 4 dereferenceable(4) ptr @_ZNK4llvm25SmallVectorTemplateCommonIjvEixEm(ptr noundef nonnull align 8 dereferenceable(16) %0, i64 noundef %1) #1 comdat align 2 {
  %3 = alloca ptr, align 8
  %4 = alloca i64, align 8
  store ptr %0, ptr %3, align 8
  store i64 %1, ptr %4, align 8
  %5 = load ptr, ptr %3, align 8
  %6 = call noundef ptr @_ZNK4llvm25SmallVectorTemplateCommonIjvE5beginEv(ptr noundef nonnull align 8 dereferenceable(16) %5)
  %7 = load i64, ptr %4, align 8
  %8 = getelementptr inbounds i32, ptr %6, i64 %7
  ret ptr %8
}

; Function Attrs: mustprogress nounwind uwtable
define linkonce_odr noundef nonnull align 4 dereferenceable(4) ptr @_ZSt3maxIjERKT_S2_S2_(ptr noundef nonnull align 4 dereferenceable(4) %0, ptr noundef nonnull align 4 dereferenceable(4) %1) #1 comdat {
  %3 = alloca ptr, align 8
  %4 = alloca ptr, align 8
  %5 = alloca ptr, align 8
  store ptr %0, ptr %4, align 8
  store ptr %1, ptr %5, align 8
  %6 = load ptr, ptr %4, align 8
  %7 = load i32, ptr %6, align 4
  %8 = load ptr, ptr %5, align 8
  %9 = load i32, ptr %8, align 4
  %10 = icmp ult i32 %7, %9
  br i1 %10, label %11, label %13

11:                                               ; preds = %2
  %12 = load ptr, ptr %5, align 8
  store ptr %12, ptr %3, align 8
  br label %15

13:                                               ; preds = %2
  %14 = load ptr, ptr %4, align 8
  store ptr %14, ptr %3, align 8
  br label %15

15:                                               ; preds = %13, %11
  %16 = load ptr, ptr %3, align 8
  ret ptr %16
}

; Function Attrs: mustprogress nounwind uwtable
define linkonce_odr hidden noundef i32 @_ZNK4llvm13SchedBoundary16getResourceCountEj(ptr noundef nonnull align 8 dereferenceable(712) %0, i32 noundef %1) #1 comdat align 2 {
  %3 = alloca ptr, align 8
  %4 = alloca i32, align 4
  store ptr %0, ptr %3, align 8
  store i32 %1, ptr %4, align 4
  %5 = load ptr, ptr %3, align 8
  %6 = getelementptr inbounds nuw %"class.llvm::SchedBoundary", ptr %5, i32 0, i32 13
  %7 = load i32, ptr %4, align 4
  %8 = zext i32 %7 to i64
  %9 = call noundef nonnull align 4 dereferenceable(4) ptr @_ZNK4llvm25SmallVectorTemplateCommonIjvEixEm(ptr noundef nonnull align 8 dereferenceable(16) %6, i64 noundef %8)
  %10 = load i32, ptr %9, align 4
  ret i32 %10
}

; Function Attrs: mustprogress nounwind uwtable
define linkonce_odr hidden noundef i32 @_ZNK4llvm16TargetSchedModel16getMicroOpFactorEv(ptr noundef nonnull align 8 dereferenceable(280) %0) #1 comdat align 2 {
  %2 = alloca ptr, align 8
  store ptr %0, ptr %2, align 8
  %3 = load ptr, ptr %2, align 8
  %4 = getelementptr inbounds nuw %"class.llvm::TargetSchedModel", ptr %3, i32 0, i32 5
  %5 = load i32, ptr %4, align 8
  ret i32 %5
}

; Function Attrs: mustprogress nounwind uwtable
define linkonce_odr hidden noundef i32 @_ZNK4llvm10ReadyQueue5getIDEv(ptr noundef nonnull align 8 dereferenceable(64) %0) #1 comdat align 2 {
  %2 = alloca ptr, align 8
  store ptr %0, ptr %2, align 8
  %3 = load ptr, ptr %2, align 8
  %4 = getelementptr inbounds nuw %"class.llvm::ReadyQueue", ptr %3, i32 0, i32 0
  %5 = load i32, ptr %4, align 8
  ret i32 %5
}

; Function Attrs: mustprogress nounwind uwtable
define internal noundef zeroext i1 @_ZL18checkResourceLimitjjjb(i32 noundef %0, i32 noundef %1, i32 noundef %2, i1 noundef zeroext %3) #1 {
  %5 = alloca i1, align 1
  %6 = alloca i32, align 4
  %7 = alloca i32, align 4
  %8 = alloca i32, align 4
  %9 = alloca i8, align 1
  %10 = alloca i32, align 4
  store i32 %0, ptr %6, align 4
  store i32 %1, ptr %7, align 4
  store i32 %2, ptr %8, align 4
  %11 = zext i1 %3 to i8
  store i8 %11, ptr %9, align 1
  %12 = load i32, ptr %7, align 4
  %13 = load i32, ptr %8, align 4
  %14 = load i32, ptr %6, align 4
  %15 = mul i32 %13, %14
  %16 = sub i32 %12, %15
  store i32 %16, ptr %10, align 4
  %17 = load i8, ptr %9, align 1
  %18 = trunc i8 %17 to i1
  br i1 %18, label %19, label %23

19:                                               ; preds = %4
  %20 = load i32, ptr %10, align 4
  %21 = load i32, ptr %6, align 4
  %22 = icmp sge i32 %20, %21
  store i1 %22, ptr %5, align 1
  br label %27

23:                                               ; preds = %4
  %24 = load i32, ptr %10, align 4
  %25 = load i32, ptr %6, align 4
  %26 = icmp sgt i32 %24, %25
  store i1 %26, ptr %5, align 1
  br label %27

27:                                               ; preds = %23, %19
  %28 = load i1, ptr %5, align 1
  ret i1 %28
}

; Function Attrs: mustprogress nounwind uwtable
define linkonce_odr hidden noundef i32 @_ZNK4llvm13SchedBoundary19getScheduledLatencyEv(ptr noundef nonnull align 8 dereferenceable(712) %0) #1 comdat align 2 {
  %2 = alloca ptr, align 8
  store ptr %0, ptr %2, align 8
  %3 = load ptr, ptr %2, align 8
  %4 = getelementptr inbounds nuw %"class.llvm::SchedBoundary", ptr %3, i32 0, i32 10
  %5 = getelementptr inbounds nuw %"class.llvm::SchedBoundary", ptr %3, i32 0, i32 7
  %6 = call noundef nonnull align 4 dereferenceable(4) ptr @_ZSt3maxIjERKT_S2_S2_(ptr noundef nonnull align 4 dereferenceable(4) %4, ptr noundef nonnull align 4 dereferenceable(4) %5)
  %7 = load i32, ptr %6, align 4
  ret i32 %7
}

; Function Attrs: mustprogress nounwind uwtable
define linkonce_odr hidden noundef i32 @_ZNK4llvm13SchedBoundary16getCriticalCountEv(ptr noundef nonnull align 8 dereferenceable(712) %0) #1 comdat align 2 {
  %2 = alloca i32, align 4
  %3 = alloca ptr, align 8
  store ptr %0, ptr %3, align 8
  %4 = load ptr, ptr %3, align 8
  %5 = getelementptr inbounds nuw %"class.llvm::SchedBoundary", ptr %4, i32 0, i32 15
  %6 = load i32, ptr %5, align 4
  %7 = icmp ne i32 %6, 0
  br i1 %7, label %15, label %8

8:                                                ; preds = %1
  %9 = getelementptr inbounds nuw %"class.llvm::SchedBoundary", ptr %4, i32 0, i32 12
  %10 = load i32, ptr %9, align 8
  %11 = getelementptr inbounds nuw %"class.llvm::SchedBoundary", ptr %4, i32 0, i32 1
  %12 = load ptr, ptr %11, align 8
  %13 = call noundef i32 @_ZNK4llvm16TargetSchedModel16getMicroOpFactorEv(ptr noundef nonnull align 8 dereferenceable(280) %12)
  %14 = mul i32 %10, %13
  store i32 %14, ptr %2, align 4
  br label %19

15:                                               ; preds = %1
  %16 = getelementptr inbounds nuw %"class.llvm::SchedBoundary", ptr %4, i32 0, i32 15
  %17 = load i32, ptr %16, align 4
  %18 = call noundef i32 @_ZNK4llvm13SchedBoundary16getResourceCountEj(ptr noundef nonnull align 8 dereferenceable(712) %4, i32 noundef %17)
  store i32 %18, ptr %2, align 4
  br label %19

19:                                               ; preds = %15, %8
  %20 = load i32, ptr %2, align 4
  ret i32 %20
}

; Function Attrs: mustprogress nounwind uwtable
define linkonce_odr hidden noundef i32 @_ZNK4llvm16TargetSchedModel16getLatencyFactorEv(ptr noundef nonnull align 8 dereferenceable(280) %0) #1 comdat align 2 {
  %2 = alloca ptr, align 8
  store ptr %0, ptr %2, align 8
  %3 = load ptr, ptr %2, align 8
  %4 = getelementptr inbounds nuw %"class.llvm::TargetSchedModel", ptr %3, i32 0, i32 6
  %5 = load i32, ptr %4, align 4
  ret i32 %5
}

; Function Attrs: mustprogress nounwind uwtable
define linkonce_odr hidden noundef zeroext i1 @_ZNK4llvm13SchedBoundary5isTopEv(ptr noundef nonnull align 8 dereferenceable(712) %0) #1 comdat align 2 {
  %2 = alloca ptr, align 8
  store ptr %0, ptr %2, align 8
  %3 = load ptr, ptr %2, align 8
  %4 = getelementptr inbounds nuw %"class.llvm::SchedBoundary", ptr %3, i32 0, i32 3
  %5 = call noundef i32 @_ZNK4llvm10ReadyQueue5getIDEv(ptr noundef nonnull align 8 dereferenceable(64) %4)
  %6 = icmp eq i32 %5, 1
  ret i1 %6
}

; Function Attrs: mustprogress nounwind uwtable
define linkonce_odr hidden noundef zeroext i1 @_ZNK4llvm24ScheduleHazardRecognizer9isEnabledEv(ptr noundef nonnull align 8 dereferenceable(12) %0) #1 comdat align 2 {
  %2 = alloca ptr, align 8
  store ptr %0, ptr %2, align 8
  %3 = load ptr, ptr %2, align 8
  %4 = getelementptr inbounds nuw %"class.llvm::ScheduleHazardRecognizer", ptr %3, i32 0, i32 1
  %5 = load i32, ptr %4, align 8
  %6 = icmp ne i32 %5, 0
  ret i1 %6
}

; Function Attrs: mustprogress nounwind uwtable
define linkonce_odr hidden noundef i32 @_ZNK4llvm16TargetSchedModel13getIssueWidthEv(ptr noundef nonnull align 8 dereferenceable(280) %0) #1 comdat align 2 {
  %2 = alloca ptr, align 8
  store ptr %0, ptr %2, align 8
  %3 = load ptr, ptr %2, align 8
  %4 = getelementptr inbounds nuw %"class.llvm::TargetSchedModel", ptr %3, i32 0, i32 0
  %5 = getelementptr inbounds nuw %"struct.llvm::MCSchedModel", ptr %4, i32 0, i32 0
  %6 = load i32, ptr %5, align 8
  ret i32 %6
}

; Function Attrs: mustprogress nounwind uwtable
define linkonce_odr hidden noundef i32 @_ZNK4llvm16TargetSchedModel20getMicroOpBufferSizeEv(ptr noundef nonnull align 8 dereferenceable(280) %0) #1 comdat align 2 {
  %2 = alloca ptr, align 8
  store ptr %0, ptr %2, align 8
  %3 = load ptr, ptr %2, align 8
  %4 = getelementptr inbounds nuw %"class.llvm::TargetSchedModel", ptr %3, i32 0, i32 0
  %5 = getelementptr inbounds nuw %"struct.llvm::MCSchedModel", ptr %4, i32 0, i32 1
  %6 = load i32, ptr %5, align 4
  ret i32 %6
}

; Function Attrs: mustprogress nounwind uwtable
define dso_local void @_ZN4llvm13SchedBoundary9bumpCycleEj(ptr noundef nonnull align 8 dereferenceable(712) %0, i32 noundef %1) #1 align 2 {
  %3 = alloca ptr, align 8
  %4 = alloca i32, align 4
  %5 = alloca i32, align 4
  store ptr %0, ptr %3, align 8
  store i32 %1, ptr %4, align 4
  %6 = load ptr, ptr %3, align 8
  %7 = getelementptr inbounds nuw %"class.llvm::SchedBoundary", ptr %6, i32 0, i32 1
  %8 = load ptr, ptr %7, align 8
  %9 = call noundef i32 @_ZNK4llvm16TargetSchedModel20getMicroOpBufferSizeEv(ptr noundef nonnull align 8 dereferenceable(280) %8)
  %10 = icmp eq i32 %9, 0
  br i1 %10, label %11, label %20

11:                                               ; preds = %2
  %12 = getelementptr inbounds nuw %"class.llvm::SchedBoundary", ptr %6, i32 0, i32 9
  %13 = load i32, ptr %12, align 4
  %14 = load i32, ptr %4, align 4
  %15 = icmp ugt i32 %13, %14
  br i1 %15, label %16, label %19

16:                                               ; preds = %11
  %17 = getelementptr inbounds nuw %"class.llvm::SchedBoundary", ptr %6, i32 0, i32 9
  %18 = load i32, ptr %17, align 4
  store i32 %18, ptr %4, align 4
  br label %19

19:                                               ; preds = %16, %11
  br label %20

20:                                               ; preds = %19, %2
  %21 = getelementptr inbounds nuw %"class.llvm::SchedBoundary", ptr %6, i32 0, i32 1
  %22 = load ptr, ptr %21, align 8
  %23 = call noundef i32 @_ZNK4llvm16TargetSchedModel13getIssueWidthEv(ptr noundef nonnull align 8 dereferenceable(280) %22)
  %24 = load i32, ptr %4, align 4
  %25 = getelementptr inbounds nuw %"class.llvm::SchedBoundary", ptr %6, i32 0, i32 7
  %26 = load i32, ptr %25, align 4
  %27 = sub i32 %24, %26
  %28 = mul i32 %23, %27
  store i32 %28, ptr %5, align 4
  %29 = getelementptr inbounds nuw %"class.llvm::SchedBoundary", ptr %6, i32 0, i32 8
  %30 = load i32, ptr %29, align 8
  %31 = load i32, ptr %5, align 4
  %32 = icmp ule i32 %30, %31
  br i1 %32, label %33, label %34

33:                                               ; preds = %20
  br label %39

34:                                               ; preds = %20
  %35 = getelementptr inbounds nuw %"class.llvm::SchedBoundary", ptr %6, i32 0, i32 8
  %36 = load i32, ptr %35, align 8
  %37 = load i32, ptr %5, align 4
  %38 = sub i32 %36, %37
  br label %39

39:                                               ; preds = %34, %33
  %40 = phi i32 [ 0, %33 ], [ %38, %34 ]
  %41 = getelementptr inbounds nuw %"class.llvm::SchedBoundary", ptr %6, i32 0, i32 8
  store i32 %40, ptr %41, align 8
  %42 = load i32, ptr %4, align 4
  %43 = getelementptr inbounds nuw %"class.llvm::SchedBoundary", ptr %6, i32 0, i32 7
  %44 = load i32, ptr %43, align 4
  %45 = sub i32 %42, %44
  %46 = getelementptr inbounds nuw %"class.llvm::SchedBoundary", ptr %6, i32 0, i32 11
  %47 = load i32, ptr %46, align 4
  %48 = icmp ugt i32 %45, %47
  br i1 %48, label %49, label %51

49:                                               ; preds = %39
  %50 = getelementptr inbounds nuw %"class.llvm::SchedBoundary", ptr %6, i32 0, i32 11
  store i32 0, ptr %50, align 4
  br label %59

51:                                               ; preds = %39
  %52 = load i32, ptr %4, align 4
  %53 = getelementptr inbounds nuw %"class.llvm::SchedBoundary", ptr %6, i32 0, i32 7
  %54 = load i32, ptr %53, align 4
  %55 = sub i32 %52, %54
  %56 = getelementptr inbounds nuw %"class.llvm::SchedBoundary", ptr %6, i32 0, i32 11
  %57 = load i32, ptr %56, align 4
  %58 = sub i32 %57, %55
  store i32 %58, ptr %56, align 4
  br label %59

59:                                               ; preds = %51, %49
  %60 = getelementptr inbounds nuw %"class.llvm::SchedBoundary", ptr %6, i32 0, i32 5
  %61 = load ptr, ptr %60, align 8
  %62 = call noundef zeroext i1 @_ZNK4llvm24ScheduleHazardRecognizer9isEnabledEv(ptr noundef nonnull align 8 dereferenceable(12) %61)
  br i1 %62, label %66, label %63

63:                                               ; preds = %59
  %64 = load i32, ptr %4, align 4
  %65 = getelementptr inbounds nuw %"class.llvm::SchedBoundary", ptr %6, i32 0, i32 7
  store i32 %64, ptr %65, align 4
  br label %92

66:                                               ; preds = %59
  br label %67

67:                                               ; preds = %87, %66
  %68 = getelementptr inbounds nuw %"class.llvm::SchedBoundary", ptr %6, i32 0, i32 7
  %69 = load i32, ptr %68, align 4
  %70 = load i32, ptr %4, align 4
  %71 = icmp ne i32 %69, %70
  br i1 %71, label %72, label %91

72:                                               ; preds = %67
  %73 = call noundef zeroext i1 @_ZNK4llvm13SchedBoundary5isTopEv(ptr noundef nonnull align 8 dereferenceable(712) %6)
  br i1 %73, label %74, label %80

74:                                               ; preds = %72
  %75 = getelementptr inbounds nuw %"class.llvm::SchedBoundary", ptr %6, i32 0, i32 5
  %76 = load ptr, ptr %75, align 8
  %77 = load ptr, ptr %76, align 8
  %78 = getelementptr inbounds ptr, ptr %77, i64 10
  %79 = load ptr, ptr %78, align 8
  call void %79(ptr noundef nonnull align 8 dereferenceable(12) %76)
  br label %86

80:                                               ; preds = %72
  %81 = getelementptr inbounds nuw %"class.llvm::SchedBoundary", ptr %6, i32 0, i32 5
  %82 = load ptr, ptr %81, align 8
  %83 = load ptr, ptr %82, align 8
  %84 = getelementptr inbounds ptr, ptr %83, i64 11
  %85 = load ptr, ptr %84, align 8
  call void %85(ptr noundef nonnull align 8 dereferenceable(12) %82)
  br label %86

86:                                               ; preds = %80, %74
  br label %87

87:                                               ; preds = %86
  %88 = getelementptr inbounds nuw %"class.llvm::SchedBoundary", ptr %6, i32 0, i32 7
  %89 = load i32, ptr %88, align 4
  %90 = add i32 %89, 1
  store i32 %90, ptr %88, align 4
  br label %67, !llvm.loop !19

91:                                               ; preds = %67
  br label %92

92:                                               ; preds = %91, %63
  %93 = getelementptr inbounds nuw %"class.llvm::SchedBoundary", ptr %6, i32 0, i32 6
  store i8 1, ptr %93, align 8
  %94 = getelementptr inbounds nuw %"class.llvm::SchedBoundary", ptr %6, i32 0, i32 1
  %95 = load ptr, ptr %94, align 8
  %96 = call noundef i32 @_ZNK4llvm16TargetSchedModel16getLatencyFactorEv(ptr noundef nonnull align 8 dereferenceable(280) %95)
  %97 = call noundef i32 @_ZNK4llvm13SchedBoundary16getCriticalCountEv(ptr noundef nonnull align 8 dereferenceable(712) %6)
  %98 = call noundef i32 @_ZNK4llvm13SchedBoundary19getScheduledLatencyEv(ptr noundef nonnull align 8 dereferenceable(712) %6)
  %99 = call noundef zeroext i1 @_ZL18checkResourceLimitjjjb(i32 noundef %96, i32 noundef %97, i32 noundef %98, i1 noundef zeroext true)
  %100 = getelementptr inbounds nuw %"class.llvm::SchedBoundary", ptr %6, i32 0, i32 16
  %101 = zext i1 %99 to i8
  store i8 %101, ptr %100, align 8
  br label %102

102:                                              ; preds = %92
  br label %103

103:                                              ; preds = %102
  ret void
}