; Function Attrs: mustprogress nounwind uwtable
define dso_local void @_ZN4llvm13SchedBoundary9bumpCycleEj(ptr noundef nonnull align 8 captures(none) dereferenceable(712) %0, i32 noundef %1) local_unnamed_addr #0 align 2 {
  %3 = getelementptr inbounds nuw i8, ptr %0, i64 8
  %4 = load ptr, ptr %3, align 8
  %5 = getelementptr inbounds nuw i8, ptr %4, i64 4
  %6 = load i32, ptr %5, align 4
  %7 = icmp eq i32 %6, 0
  %8 = getelementptr inbounds nuw i8, ptr %0, i64 172
  %9 = load i32, ptr %8, align 4
  %spec.select = tail call i32 @llvm.umax.i32(i32 %9, i32 %1)
  %.0 = select i1 %7, i32 %spec.select, i32 %1
  %10 = load i32, ptr %4, align 8
  %11 = getelementptr inbounds nuw i8, ptr %0, i64 164
  %12 = load i32, ptr %11, align 4
  %13 = sub i32 %.0, %12
  %14 = mul i32 %13, %10
  %15 = getelementptr inbounds nuw i8, ptr %0, i64 168
  %16 = load i32, ptr %15, align 8
  %spec.select15 = tail call i32 @llvm.usub.sat.i32(i32 %16, i32 %14)
  store i32 %spec.select15, ptr %15, align 8
  %17 = getelementptr inbounds nuw i8, ptr %0, i64 180
  %18 = load i32, ptr %17, align 4
  %storemerge = tail call i32 @llvm.usub.sat.i32(i32 %18, i32 %13)
  store i32 %storemerge, ptr %17, align 4
  %19 = getelementptr inbounds nuw i8, ptr %0, i64 152
  %20 = load ptr, ptr %19, align 8
  %21 = getelementptr inbounds nuw i8, ptr %20, i64 8
  %22 = load i32, ptr %21, align 8
  %.not = icmp eq i32 %22, 0
  br i1 %.not, label %24, label %.preheader

.preheader:                                       ; preds = %2
  %.not1417 = icmp eq i32 %12, %.0
  br i1 %.not1417, label %.loopexit, label %.lr.ph

.lr.ph:                                           ; preds = %.preheader
  %23 = getelementptr inbounds nuw i8, ptr %0, i64 24
  br label %25

24:                                               ; preds = %2
  store i32 %.0, ptr %11, align 4
  br label %.loopexit

25:                                               ; preds = %.lr.ph, %25
  %26 = load i32, ptr %23, align 8
  %27 = icmp eq i32 %26, 1
  %28 = load ptr, ptr %19, align 8
  %29 = load ptr, ptr %28, align 8
  %. = select i1 %27, i64 80, i64 88
  %30 = getelementptr inbounds nuw i8, ptr %29, i64 %.
  %31 = load ptr, ptr %30, align 8
  tail call void %31(ptr noundef nonnull align 8 dereferenceable(12) %28) #28
  %32 = load i32, ptr %11, align 4
  %33 = add i32 %32, 1
  store i32 %33, ptr %11, align 4
  %.not14 = icmp eq i32 %33, %.0
  br i1 %.not14, label %.loopexit.loopexit, label %25, !llvm.loop !64

.loopexit.loopexit:                               ; preds = %25
  %.pre = load ptr, ptr %3, align 8
  br label %.loopexit

.loopexit:                                        ; preds = %.loopexit.loopexit, %.preheader, %24
  %34 = phi ptr [ %.pre, %.loopexit.loopexit ], [ %4, %.preheader ], [ %4, %24 ]
  %35 = getelementptr inbounds nuw i8, ptr %0, i64 160
  store i8 1, ptr %35, align 8
  %36 = getelementptr inbounds nuw i8, ptr %34, i64 276
  %37 = load i32, ptr %36, align 4
  %38 = getelementptr inbounds nuw i8, ptr %0, i64 276
  %39 = load i32, ptr %38, align 4
  %.not.i = icmp eq i32 %39, 0
  br i1 %.not.i, label %40, label %46

40:                                               ; preds = %.loopexit
  %41 = getelementptr inbounds nuw i8, ptr %0, i64 184
  %42 = load i32, ptr %41, align 8
  %43 = getelementptr inbounds nuw i8, ptr %34, i64 272
  %44 = load i32, ptr %43, align 8
  %45 = mul i32 %44, %42
  br label %_ZNK4llvm13SchedBoundary16getCriticalCountEv.exit

46:                                               ; preds = %.loopexit
  %47 = getelementptr inbounds nuw i8, ptr %0, i64 192
  %48 = zext i32 %39 to i64
  %49 = load ptr, ptr %47, align 8
  %50 = getelementptr inbounds nuw i32, ptr %49, i64 %48
  %51 = load i32, ptr %50, align 4
  br label %_ZNK4llvm13SchedBoundary16getCriticalCountEv.exit

_ZNK4llvm13SchedBoundary16getCriticalCountEv.exit: ; preds = %40, %46
  %.0.i = phi i32 [ %51, %46 ], [ %45, %40 ]
  %52 = getelementptr inbounds nuw i8, ptr %0, i64 176
  %53 = load i32, ptr %52, align 8
  %54 = tail call noundef i32 @llvm.umax.i32(i32 %53, i32 %.0)
  %55 = mul i32 %54, %37
  %56 = sub i32 %.0.i, %55
  %57 = icmp sge i32 %56, %37
  %58 = getelementptr inbounds nuw i8, ptr %0, i64 280
  %59 = zext i1 %57 to i8
  store i8 %59, ptr %58, align 8
  ret void
}